target datalayout = "e-m:e-p270:32:32-p271:32:32-p272:64:64-i64:64-i128:128-f80:128-n8:16:32:64-S128"
target triple = "x86_64-pc-linux-gnu"

%struct.TupleTableSlot = type { i32, i16, i16, ptr, ptr, ptr, ptr, ptr, %struct.ItemPointerData, i32 }
%struct.ItemPointerData = type { %struct.BlockIdData, i16 }
%struct.BlockIdData = type { i16, i16 }
%struct.HeapTupleTableSlot = type { %struct.TupleTableSlot, ptr, i32, %struct.HeapTupleData }
%struct.HeapTupleData = type { i32, %struct.ItemPointerData, i32, ptr }

@CurrentMemoryContext = external global ptr, align 8

; Function Attrs: inlinehint nounwind uwtable
define internal ptr @MemoryContextSwitchTo(ptr noundef %0) #4 {
  %2 = alloca ptr, align 8
  %3 = alloca ptr, align 8
  store ptr %0, ptr %2, align 8
  call void @llvm.lifetime.start.p0(i64 8, ptr %3) #10
  %4 = load ptr, ptr @CurrentMemoryContext, align 8
  store ptr %4, ptr %3, align 8
  %5 = load ptr, ptr %2, align 8
  store ptr %5, ptr @CurrentMemoryContext, align 8
  %6 = load ptr, ptr %3, align 8
  call void @llvm.lifetime.end.p0(i64 8, ptr %3) #10
  ret ptr %6
}

; Function Attrs: nounwind uwtable
define internal void @tts_heap_materialize(ptr noundef %0) #0 {
  %2 = alloca ptr, align 8
  %3 = alloca ptr, align 8
  %4 = alloca ptr, align 8
  %5 = alloca i32, align 4
  store ptr %0, ptr %2, align 8
  call void @llvm.lifetime.start.p0(i64 8, ptr %3) #10
  %6 = load ptr, ptr %2, align 8
  store ptr %6, ptr %3, align 8
  call void @llvm.lifetime.start.p0(i64 8, ptr %4) #10
  %7 = load ptr, ptr %2, align 8
  %8 = getelementptr inbounds nuw %struct.TupleTableSlot, ptr %7, i32 0, i32 1
  %9 = load i16, ptr %8, align 4
  %10 = zext i16 %9 to i32
  %11 = and i32 %10, 4
  %12 = icmp ne i32 %11, 0
  br i1 %12, label %13, label %14

13:                                               ; preds = %1
  store i32 1, ptr %5, align 4
  br label %56

14:                                               ; preds = %1
  %15 = load ptr, ptr %2, align 8
  %16 = getelementptr inbounds nuw %struct.TupleTableSlot, ptr %15, i32 0, i32 7
  %17 = load ptr, ptr %16, align 8
  %18 = call ptr @MemoryContextSwitchTo(ptr noundef %17)
  store ptr %18, ptr %4, align 8
  %19 = load ptr, ptr %2, align 8
  %20 = getelementptr inbounds nuw %struct.TupleTableSlot, ptr %19, i32 0, i32 2
  store i16 0, ptr %20, align 2
  %21 = load ptr, ptr %3, align 8
  %22 = getelementptr inbounds nuw %struct.HeapTupleTableSlot, ptr %21, i32 0, i32 2
  store i32 0, ptr %22, align 8
  %23 = load ptr, ptr %3, align 8
  %24 = getelementptr inbounds nuw %struct.HeapTupleTableSlot, ptr %23, i32 0, i32 1
  %25 = load ptr, ptr %24, align 8
  %26 = icmp ne ptr %25, null
  br i1 %26, label %40, label %27

27:                                               ; preds = %14
  %28 = load ptr, ptr %2, align 8
  %29 = getelementptr inbounds nuw %struct.TupleTableSlot, ptr %28, i32 0, i32 4
  %30 = load ptr, ptr %29, align 8
  %31 = load ptr, ptr %2, align 8
  %32 = getelementptr inbounds nuw %struct.TupleTableSlot, ptr %31, i32 0, i32 5
  %33 = load ptr, ptr %32, align 8
  %34 = load ptr, ptr %2, align 8
  %35 = getelementptr inbounds nuw %struct.TupleTableSlot, ptr %34, i32 0, i32 6
  %36 = load ptr, ptr %35, align 8
  %37 = call ptr @heap_form_tuple(ptr noundef %30, ptr noundef %33, ptr noundef %36)
  %38 = load ptr, ptr %3, align 8
  %39 = getelementptr inbounds nuw %struct.HeapTupleTableSlot, ptr %38, i32 0, i32 1
  store ptr %37, ptr %39, align 8
  br label %47

40:                                               ; preds = %14
  %41 = load ptr, ptr %3, align 8
  %42 = getelementptr inbounds nuw %struct.HeapTupleTableSlot, ptr %41, i32 0, i32 1
  %43 = load ptr, ptr %42, align 8
  %44 = call ptr @heap_copytuple(ptr noundef %43)
  %45 = load ptr, ptr %3, align 8
  %46 = getelementptr inbounds nuw %struct.HeapTupleTableSlot, ptr %45, i32 0, i32 1
  store ptr %44, ptr %46, align 8
  br label %47

47:                                               ; preds = %40, %27
  %48 = load ptr, ptr %2, align 8
  %49 = getelementptr inbounds nuw %struct.TupleTableSlot, ptr %48, i32 0, i32 1
  %50 = load i16, ptr %49, align 4
  %51 = zext i16 %50 to i32
  %52 = or i32 %51, 4
  %53 = trunc i32 %52 to i16
  store i16 %53, ptr %49, align 4
  %54 = load ptr, ptr %4, align 8
  %55 = call ptr @MemoryContextSwitchTo(ptr noundef %54)
  store i32 0, ptr %5, align 4
  br label %56

56:                                               ; preds = %47, %13
  call void @llvm.lifetime.end.p0(i64 8, ptr %4) #10
  call void @llvm.lifetime.end.p0(i64 8, ptr %3) #10
  %57 = load i32, ptr %5, align 4
  switch i32 %57, label %59 [
    i32 0, label %58
    i32 1, label %58
  ]

58:                                               ; preds = %56, %56
  ret void

59:                                               ; preds = %56
  unreachable
}